; Function Attrs: nounwind sspstrong uwtable
define internal i64 @int_truncate(i32 noundef %0, ptr noundef readonly captures(none) %1, i64 noundef %2) #2 {
  %or.cond.i = icmp ugt i32 %0, 1
  br i1 %or.cond.i, label %4, label %rb_check_arity.exit

4:                                                ; preds = %3
  tail call void @rb_error_arity(i32 noundef %0, i32 noundef 0, i32 noundef 1) #25
  unreachable

rb_check_arity.exit:                              ; preds = %3
  %.not = icmp eq i32 %0, 0
  br i1 %.not, label %20, label %5

5:                                                ; preds = %rb_check_arity.exit
  %6 = load i64, ptr %1, align 8, !tbaa !7
  %7 = and i64 %6, 1
  %.not.i = icmp eq i64 %7, 0
  br i1 %.not.i, label %12, label %8

8:                                                ; preds = %5
  %9 = ashr i64 %6, 1
  %10 = add nsw i64 %9, 2147483648
  %.not.i.i.i = icmp ult i64 %10, 4294967296
  br i1 %.not.i.i.i, label %rb_num2int_inline.exit, label %11

11:                                               ; preds = %8
  tail call void @rb_out_of_int(i64 noundef %9) #30
  unreachable

12:                                               ; preds = %5
  %13 = tail call i64 @rb_num2long(i64 noundef %6)
  %14 = add i64 %13, 2147483648
  %.not.i.i4.i = icmp ult i64 %14, 4294967296
  br i1 %.not.i.i4.i, label %rb_num2int_inline.exit, label %15

15:                                               ; preds = %12
  tail call void @rb_out_of_int(i64 noundef %13) #30
  unreachable

rb_num2int_inline.exit:                           ; preds = %8, %12
  %.0.i = phi i64 [ %9, %8 ], [ %13, %12 ]
  %16 = trunc i64 %.0.i to i32
  %17 = icmp sgt i32 %16, -1
  br i1 %17, label %20, label %18

18:                                               ; preds = %rb_num2int_inline.exit
  %19 = tail call i64 @rb_int_truncate(i64 noundef %2, i32 noundef %16)
  br label %20

20:                                               ; preds = %rb_num2int_inline.exit, %rb_check_arity.exit, %18
  %.0 = phi i64 [ %19, %18 ], [ %2, %rb_check_arity.exit ], [ %2, %rb_num2int_inline.exit ]
  ret i64 %.0
}